target datalayout = "e-m:e-p270:32:32-p271:32:32-p272:64:64-i64:64-i128:128-f80:128-n8:16:32:64-S128"
target triple = "x86_64-pc-linux-gnu"

%"class.std::basic_string_view" = type { i64, ptr }
%struct.WasmEdge_String = type { i32, ptr }
%"class.std::function" = type { %"class.std::_Function_base", ptr }
%"class.std::_Function_base" = type { %"union.std::_Any_data", ptr }
%"union.std::_Any_data" = type { %"union.std::_Nocopy_types" }
%"union.std::_Nocopy_types" = type { { i64, i64 } }

; Function Attrs: mustprogress nounwind uwtable
define linkonce_odr hidden void @_ZNSt14_Function_baseD2Ev(ptr noundef nonnull align 8 dereferenceable(24) %0) unnamed_addr #0 comdat align 2 personality ptr @__gxx_personality_v0 {
  %2 = alloca ptr, align 8
  store ptr %0, ptr %2, align 8
  %3 = load ptr, ptr %2, align 8
  %4 = getelementptr inbounds %"class.std::_Function_base", ptr %3, i32 0, i32 1
  %5 = load ptr, ptr %4, align 8
  %6 = icmp ne ptr %5, null
  br i1 %6, label %7, label %14

7:                                                ; preds = %1
  %8 = getelementptr inbounds %"class.std::_Function_base", ptr %3, i32 0, i32 1
  %9 = load ptr, ptr %8, align 8
  %10 = getelementptr inbounds %"class.std::_Function_base", ptr %3, i32 0, i32 0
  %11 = getelementptr inbounds %"class.std::_Function_base", ptr %3, i32 0, i32 0
  %12 = invoke noundef zeroext i1 %9(ptr noundef nonnull align 8 dereferenceable(16) %10, ptr noundef nonnull align 8 dereferenceable(16) %11, i32 noundef 3)
          to label %13 unwind label %15

13:                                               ; preds = %7
  br label %14

14:                                               ; preds = %13, %1
  ret void

15:                                               ; preds = %7
  %16 = landingpad { ptr, i32 }
          catch ptr null
  %17 = extractvalue { ptr, i32 } %16, 0
  call void @__clang_call_terminate(ptr %17) #19
  unreachable
}

; Function Attrs: mustprogress nounwind uwtable
define linkonce_odr hidden void @_ZNSt14_Function_baseC2Ev(ptr noundef nonnull align 8 dereferenceable(24) %0) unnamed_addr #0 comdat align 2 {
  %2 = alloca ptr, align 8
  store ptr %0, ptr %2, align 8
  %3 = load ptr, ptr %2, align 8
  %4 = getelementptr inbounds %"class.std::_Function_base", ptr %3, i32 0, i32 0
  store ptr null, ptr %4, align 8
  %5 = getelementptr inbounds %"class.std::_Function_base", ptr %3, i32 0, i32 1
  store ptr null, ptr %5, align 8
  ret void
}

; Function Attrs: mustprogress nounwind uwtable
define linkonce_odr hidden void @_ZNSt17basic_string_viewIcSt11char_traitsIcEEC2EPKcm(ptr noundef nonnull align 8 dereferenceable(16) %0, ptr noundef %1, i64 noundef %2) unnamed_addr #0 comdat align 2 {
  %4 = alloca ptr, align 8
  %5 = alloca ptr, align 8
  %6 = alloca i64, align 8
  store ptr %0, ptr %4, align 8
  store ptr %1, ptr %5, align 8
  store i64 %2, ptr %6, align 8
  %7 = load ptr, ptr %4, align 8
  %8 = getelementptr inbounds %"class.std::basic_string_view", ptr %7, i32 0, i32 0
  %9 = load i64, ptr %6, align 8
  store i64 %9, ptr %8, align 8
  %10 = getelementptr inbounds %"class.std::basic_string_view", ptr %7, i32 0, i32 1
  %11 = load ptr, ptr %5, align 8
  store ptr %11, ptr %10, align 8
  ret void
}

; Function Attrs: mustprogress nounwind uwtable
define linkonce_odr hidden void @_ZNSt8functionIFvPvEED2Ev(ptr noundef nonnull align 8 dereferenceable(32) %0) unnamed_addr #0 comdat align 2 {
  %2 = alloca ptr, align 8
  store ptr %0, ptr %2, align 8
  %3 = load ptr, ptr %2, align 8
  call void @_ZNSt14_Function_baseD2Ev(ptr noundef nonnull align 8 dereferenceable(24) %3) #18
  ret void
}

; Function Attrs: mustprogress nounwind uwtable
define internal noundef ptr @_ZN12_GLOBAL__N_18toModCxtEPN8WasmEdge7Runtime8Instance14ModuleInstanceE(ptr noundef %0) #0 {
  %2 = alloca ptr, align 8
  store ptr %0, ptr %2, align 8
  %3 = load ptr, ptr %2, align 8
  ret ptr %3
}

; Function Attrs: mustprogress nounwind uwtable
define linkonce_odr hidden void @_ZNSt8functionIFvPvEEC2EDn(ptr noundef nonnull align 8 dereferenceable(32) %0, ptr %1) unnamed_addr #0 comdat align 2 {
  %3 = alloca ptr, align 8
  %4 = alloca ptr, align 8
  store ptr %0, ptr %3, align 8
  store ptr %1, ptr %4, align 8
  %5 = load ptr, ptr %3, align 8
  %6 = getelementptr inbounds i8, ptr %5, i64 0
  call void @llvm.memset.p0.i64(ptr align 8 %6, i8 0, i64 24, i1 false)
  call void @_ZNSt14_Function_baseC2Ev(ptr noundef nonnull align 8 dereferenceable(24) %5) #18
  %7 = getelementptr inbounds %"class.std::function", ptr %5, i32 0, i32 1
  store ptr null, ptr %7, align 8
  ret void
}

; Function Attrs: mustprogress nounwind uwtable
define internal { i64, ptr } @_ZN12_GLOBAL__N_110genStrViewE15WasmEdge_String(i32 %0, ptr %1) #0 {
  %3 = alloca %"class.std::basic_string_view", align 8
  %4 = alloca %struct.WasmEdge_String, align 8
  %5 = getelementptr inbounds { i32, ptr }, ptr %4, i32 0, i32 0
  store i32 %0, ptr %5, align 8
  %6 = getelementptr inbounds { i32, ptr }, ptr %4, i32 0, i32 1
  store ptr %1, ptr %6, align 8
  %7 = getelementptr inbounds %struct.WasmEdge_String, ptr %4, i32 0, i32 1
  %8 = load ptr, ptr %7, align 8
  %9 = getelementptr inbounds %struct.WasmEdge_String, ptr %4, i32 0, i32 0
  %10 = load i32, ptr %9, align 8
  %11 = zext i32 %10 to i64
  call void @_ZNSt17basic_string_viewIcSt11char_traitsIcEEC2EPKcm(ptr noundef nonnull align 8 dereferenceable(16) %3, ptr noundef %8, i64 noundef %11) #18
  %12 = load { i64, ptr }, ptr %3, align 8
  ret { i64, ptr } %12
}

; Function Attrs: mustprogress uwtable
define ptr @WasmEdge_ModuleInstanceCreate(i32 %0, ptr %1) #1 personality ptr @__gxx_personality_v0 {
  %3 = alloca %struct.WasmEdge_String, align 8
  %4 = alloca %"class.std::basic_string_view", align 8
  %5 = alloca %struct.WasmEdge_String, align 8
  %6 = alloca %"class.std::function", align 8
  %7 = alloca ptr, align 8
  %8 = alloca i32, align 4
  %9 = alloca i1, align 1
  %10 = getelementptr inbounds { i32, ptr }, ptr %3, i32 0, i32 0
  store i32 %0, ptr %10, align 8
  %11 = getelementptr inbounds { i32, ptr }, ptr %3, i32 0, i32 1
  store ptr %1, ptr %11, align 8
  %12 = call noalias noundef nonnull ptr @_Znwm(i64 noundef 920) #21
  store i1 true, ptr %9, align 1
  call void @llvm.memcpy.p0.p0.i64(ptr align 8 %5, ptr align 8 %3, i64 16, i1 false)
  %13 = getelementptr inbounds { i32, ptr }, ptr %5, i32 0, i32 0
  %14 = load i32, ptr %13, align 8
  %15 = getelementptr inbounds { i32, ptr }, ptr %5, i32 0, i32 1
  %16 = load ptr, ptr %15, align 8
  %17 = call { i64, ptr } @_ZN12_GLOBAL__N_110genStrViewE15WasmEdge_String(i32 %14, ptr %16) #18
  %18 = getelementptr inbounds { i64, ptr }, ptr %4, i32 0, i32 0
  %19 = extractvalue { i64, ptr } %17, 0
  store i64 %19, ptr %18, align 8
  %20 = getelementptr inbounds { i64, ptr }, ptr %4, i32 0, i32 1
  %21 = extractvalue { i64, ptr } %17, 1
  store ptr %21, ptr %20, align 8
  call void @_ZNSt8functionIFvPvEEC2EDn(ptr noundef nonnull align 8 dereferenceable(32) %6, ptr null) #18
  %22 = getelementptr inbounds { i64, ptr }, ptr %4, i32 0, i32 0
  %23 = load i64, ptr %22, align 8
  %24 = getelementptr inbounds { i64, ptr }, ptr %4, i32 0, i32 1
  %25 = load ptr, ptr %24, align 8
  invoke void @_ZN8WasmEdge7Runtime8Instance14ModuleInstanceC2ESt17basic_string_viewIcSt11char_traitsIcEEPvSt8functionIFvS7_EE(ptr noundef nonnull align 8 dereferenceable(920) %12, i64 %23, ptr %25, ptr noundef null, ptr noundef %6)
          to label %26 unwind label %28

26:                                               ; preds = %2
  store i1 false, ptr %9, align 1
  %27 = call noundef ptr @_ZN12_GLOBAL__N_18toModCxtEPN8WasmEdge7Runtime8Instance14ModuleInstanceE(ptr noundef %12) #18
  call void @_ZNSt8functionIFvPvEED2Ev(ptr noundef nonnull align 8 dereferenceable(32) %6) #18
  ret ptr %27

28:                                               ; preds = %2
  %29 = landingpad { ptr, i32 }
          cleanup
  %30 = extractvalue { ptr, i32 } %29, 0
  store ptr %30, ptr %7, align 8
  %31 = extractvalue { ptr, i32 } %29, 1
  store i32 %31, ptr %8, align 4
  call void @_ZNSt8functionIFvPvEED2Ev(ptr noundef nonnull align 8 dereferenceable(32) %6) #18
  %32 = load i1, ptr %9, align 1
  br i1 %32, label %33, label %34

33:                                               ; preds = %28
  call void @_ZdlPvm(ptr noundef %12, i64 noundef 920) #22
  br label %34

34:                                               ; preds = %33, %28
  br label %35

35:                                               ; preds = %34
  %36 = load ptr, ptr %7, align 8
  %37 = load i32, ptr %8, align 4
  %38 = insertvalue { ptr, i32 } poison, ptr %36, 0
  %39 = insertvalue { ptr, i32 } %38, i32 %37, 1
  resume { ptr, i32 } %39
}