; Function Attrs: mustprogress uwtable
define noundef ptr @WasmEdge_ModuleInstanceCreate(i32 %0, ptr %1) local_unnamed_addr #1 personality ptr @__gxx_personality_v0 {
  %3 = alloca %"class.std::function", align 8
  %4 = tail call noalias noundef nonnull dereferenceable(920) ptr @_Znwm(i64 noundef 920) #35
  %5 = zext i32 %0 to i64
  call void @llvm.memset.p0.i64(ptr noundef nonnull align 8 dereferenceable(32) %3, i8 0, i64 32, i1 false)
  invoke void @_ZN8WasmEdge7Runtime8Instance14ModuleInstanceC2ESt17basic_string_viewIcSt11char_traitsIcEEPvSt8functionIFvS7_EE(ptr noundef nonnull align 8 dereferenceable(920) %4, i64 %5, ptr %1, ptr noundef null, ptr noundef nonnull %3)
          to label %6 unwind label %14

6:                                                ; preds = %2
  %7 = getelementptr inbounds i8, ptr %3, i64 16
  %8 = load ptr, ptr %7, align 8
  %.not.i.i = icmp eq ptr %8, null
  br i1 %.not.i.i, label %_ZNSt8functionIFvPvEED2Ev.exit, label %9

9:                                                ; preds = %6
  %10 = invoke noundef zeroext i1 %8(ptr noundef nonnull align 8 dereferenceable(16) %3, ptr noundef nonnull align 8 dereferenceable(16) %3, i32 noundef 3)
          to label %_ZNSt8functionIFvPvEED2Ev.exit unwind label %11

11:                                               ; preds = %9
  %12 = landingpad { ptr, i32 }
          catch ptr null
  %13 = extractvalue { ptr, i32 } %12, 0
  call void @__clang_call_terminate(ptr %13) #39
  unreachable

_ZNSt8functionIFvPvEED2Ev.exit:                   ; preds = %6, %9
  ret ptr %4

14:                                               ; preds = %2
  %15 = landingpad { ptr, i32 }
          cleanup
  %16 = getelementptr inbounds i8, ptr %3, i64 16
  %17 = load ptr, ptr %16, align 8
  %.not.i.i7 = icmp eq ptr %17, null
  br i1 %.not.i.i7, label %_ZNSt8functionIFvPvEED2Ev.exit8, label %18

18:                                               ; preds = %14
  %19 = invoke noundef zeroext i1 %17(ptr noundef nonnull align 8 dereferenceable(16) %3, ptr noundef nonnull align 8 dereferenceable(16) %3, i32 noundef 3)
          to label %_ZNSt8functionIFvPvEED2Ev.exit8 unwind label %20

20:                                               ; preds = %18
  %21 = landingpad { ptr, i32 }
          catch ptr null
  %22 = extractvalue { ptr, i32 } %21, 0
  call void @__clang_call_terminate(ptr %22) #39
  unreachable

_ZNSt8functionIFvPvEED2Ev.exit8:                  ; preds = %14, %18
  call void @_ZdlPvm(ptr noundef nonnull %4, i64 noundef 920) #36
  resume { ptr, i32 } %15
}